target datalayout = "e-m:e-p270:32:32-p271:32:32-p272:64:64-i64:64-i128:128-f80:128-n8:16:32:64-S128"
target triple = "x86_64-pc-linux-gnu"

%struct._connParams = type { ptr, ptr, ptr, ptr, i32, ptr }
%struct._restoreOptions = type { i32, i32, i32, i32, i32, i32, ptr, ptr, i32, i32, i32, i32, i32, i32, i32, i32, i32, i32, ptr, i32, i32, i32, ptr, i32, i32, ptr, i32, ptr, i32, i32, i32, i32, i32, %struct.SimpleStringList, %struct.SimpleStringList, %struct.SimpleStringList, %struct.SimpleStringList, %struct.SimpleStringList, %struct.SimpleStringList, i32, %struct._connParams, i32, i32, %struct.pg_compress_specification, i32, i8, i32, ptr, i32, i32, i32, i8, i8 }
%struct.SimpleStringList = type { ptr, ptr }
%struct.pg_compress_specification = type { i32, i32, i32, i32, i8, ptr }
%struct._archiveHandle = type { %struct.Archive, i32, ptr, ptr, i64, i64, i32, %struct.sqlparseInfo, i64, i32, ptr, i64, i64, i64, ptr, ptr, ptr, ptr, ptr, ptr, ptr, ptr, ptr, ptr, ptr, ptr, ptr, ptr, ptr, ptr, ptr, ptr, ptr, ptr, ptr, ptr, ptr, ptr, ptr, ptr, ptr, ptr, ptr, ptr, i32, i32, i8, i32, i8, i32, ptr, ptr, ptr, ptr, i32, i32, ptr, ptr, ptr, %struct.pg_compress_specification, i8, i32, i32, ptr, ptr, ptr, ptr, ptr, i32, ptr, i64, i64, i32, i32, i32, i32, ptr, ptr }
%struct.Archive = type { ptr, ptr, i32, ptr, i32, i8, i32, i32, i32, ptr, i32, i8, ptr, ptr, i8, i32, ptr }
%struct.sqlparseInfo = type { i32, i8, ptr }
%struct.PQExpBufferData = type { ptr, i64, i64 }

@.str.29 = private unnamed_addr constant [8 x i8] c"DEFAULT\00", align 1
@.str.128 = private unnamed_addr constant [1 x i8] zeroinitializer, align 1
@.str.139 = private unnamed_addr constant [5 x i8] c"%s\0A\0A\00", align 1
@.str.188 = private unnamed_addr constant [27 x i8] c"SET SESSION AUTHORIZATION \00", align 1
@.str.189 = private unnamed_addr constant [39 x i8] c"could not set session user to \22%s\22: %s\00", align 1

; Function Attrs: nounwind uwtable
define internal i32 @RestoringToDB(ptr noundef %0) #0 {
  %2 = alloca ptr, align 8
  %3 = alloca ptr, align 8
  store ptr %0, ptr %2, align 8
  call void @llvm.lifetime.start.p0(i64 8, ptr %3) #11
  %4 = load ptr, ptr %2, align 8
  %5 = getelementptr inbounds nuw %struct._archiveHandle, ptr %4, i32 0, i32 0
  %6 = getelementptr inbounds nuw %struct.Archive, ptr %5, i32 0, i32 1
  %7 = load ptr, ptr %6, align 8
  store ptr %7, ptr %3, align 8
  %8 = load ptr, ptr %3, align 8
  %9 = icmp ne ptr %8, null
  br i1 %9, label %10, label %20

10:                                               ; preds = %1
  %11 = load ptr, ptr %3, align 8
  %12 = getelementptr inbounds nuw %struct._restoreOptions, ptr %11, i32 0, i32 39
  %13 = load i32, ptr %12, align 8
  %14 = icmp ne i32 %13, 0
  br i1 %14, label %15, label %20

15:                                               ; preds = %10
  %16 = load ptr, ptr %2, align 8
  %17 = getelementptr inbounds nuw %struct._archiveHandle, ptr %16, i32 0, i32 42
  %18 = load ptr, ptr %17, align 8
  %19 = icmp ne ptr %18, null
  br label %20

20:                                               ; preds = %15, %10, %1
  %21 = phi i1 [ false, %10 ], [ false, %1 ], [ %19, %15 ]
  %22 = zext i1 %21 to i32
  call void @llvm.lifetime.end.p0(i64 8, ptr %3) #11
  ret i32 %22
}

; Function Attrs: nounwind uwtable
define internal void @_doSetSessionAuth(ptr noundef %0, ptr noundef %1) #0 {
  %3 = alloca ptr, align 8
  %4 = alloca ptr, align 8
  %5 = alloca ptr, align 8
  %6 = alloca ptr, align 8
  store ptr %0, ptr %3, align 8
  store ptr %1, ptr %4, align 8
  call void @llvm.lifetime.start.p0(i64 8, ptr %5) #11
  %7 = call ptr @createPQExpBuffer()
  store ptr %7, ptr %5, align 8
  %8 = load ptr, ptr %5, align 8
  call void @appendPQExpBufferStr(ptr noundef %8, ptr noundef @.str.188)
  %9 = load ptr, ptr %4, align 8
  %10 = icmp ne ptr %9, null
  br i1 %10, label %11, label %28

11:                                               ; preds = %2
  %12 = load ptr, ptr %4, align 8
  %13 = load i8, ptr %12, align 1
  %14 = sext i8 %13 to i32
  %15 = icmp ne i32 %14, 0
  br i1 %15, label %16, label %28

16:                                               ; preds = %11
  %17 = load ptr, ptr %5, align 8
  %18 = load ptr, ptr %4, align 8
  %19 = load ptr, ptr %3, align 8
  %20 = getelementptr inbounds nuw %struct._archiveHandle, ptr %19, i32 0, i32 0
  %21 = getelementptr inbounds nuw %struct.Archive, ptr %20, i32 0, i32 10
  %22 = load i32, ptr %21, align 8
  %23 = load ptr, ptr %3, align 8
  %24 = getelementptr inbounds nuw %struct._archiveHandle, ptr %23, i32 0, i32 0
  %25 = getelementptr inbounds nuw %struct.Archive, ptr %24, i32 0, i32 11
  %26 = load i8, ptr %25, align 4, !range !4, !noundef !5
  %27 = trunc i8 %26 to i1
  call void @appendStringLiteral(ptr noundef %17, ptr noundef %18, i32 noundef %22, i1 noundef zeroext %27)
  br label %30

28:                                               ; preds = %11, %2
  %29 = load ptr, ptr %5, align 8
  call void @appendPQExpBufferStr(ptr noundef %29, ptr noundef @.str.29)
  br label %30

30:                                               ; preds = %28, %16
  %31 = load ptr, ptr %5, align 8
  call void @appendPQExpBufferChar(ptr noundef %31, i8 noundef signext 59)
  %32 = load ptr, ptr %3, align 8
  %33 = call i32 @RestoringToDB(ptr noundef %32)
  %34 = icmp ne i32 %33, 0
  br i1 %34, label %35, label %60

35:                                               ; preds = %30
  call void @llvm.lifetime.start.p0(i64 8, ptr %6) #11
  %36 = load ptr, ptr %3, align 8
  %37 = getelementptr inbounds nuw %struct._archiveHandle, ptr %36, i32 0, i32 42
  %38 = load ptr, ptr %37, align 8
  %39 = load ptr, ptr %5, align 8
  %40 = getelementptr inbounds nuw %struct.PQExpBufferData, ptr %39, i32 0, i32 0
  %41 = load ptr, ptr %40, align 8
  %42 = call ptr @PQexec(ptr noundef %38, ptr noundef %41)
  store ptr %42, ptr %6, align 8
  %43 = load ptr, ptr %6, align 8
  %44 = icmp ne ptr %43, null
  br i1 %44, label %45, label %49

45:                                               ; preds = %35
  %46 = load ptr, ptr %6, align 8
  %47 = call i32 @PQresultStatus(ptr noundef %46)
  %48 = icmp ne i32 %47, 1
  br i1 %48, label %49, label %58

49:                                               ; preds = %45, %35
  br label %50

50:                                               ; preds = %49
  %51 = load ptr, ptr %4, align 8
  %52 = load ptr, ptr %3, align 8
  %53 = getelementptr inbounds nuw %struct._archiveHandle, ptr %52, i32 0, i32 42
  %54 = load ptr, ptr %53, align 8
  %55 = call ptr @PQerrorMessage(ptr noundef %54)
  call void (i32, i32, ptr, ...) @pg_log_generic(i32 noundef 4, i32 noundef 0, ptr noundef @.str.189, ptr noundef %51, ptr noundef %55)
  call void @exit_nicely(i32 noundef 1) #12
  unreachable

56:                                               ; No predecessors!
  br label %57

57:                                               ; preds = %56
  br label %58

58:                                               ; preds = %57, %45
  %59 = load ptr, ptr %6, align 8
  call void @PQclear(ptr noundef %59)
  call void @llvm.lifetime.end.p0(i64 8, ptr %6) #11
  br label %66

60:                                               ; preds = %30
  %61 = load ptr, ptr %3, align 8
  %62 = load ptr, ptr %5, align 8
  %63 = getelementptr inbounds nuw %struct.PQExpBufferData, ptr %62, i32 0, i32 0
  %64 = load ptr, ptr %63, align 8
  %65 = call i32 (ptr, ptr, ...) @ahprintf(ptr noundef %61, ptr noundef @.str.139, ptr noundef %64)
  br label %66

66:                                               ; preds = %60, %58
  %67 = load ptr, ptr %5, align 8
  call void @destroyPQExpBuffer(ptr noundef %67)
  call void @llvm.lifetime.end.p0(i64 8, ptr %5) #11
  ret void
}

; Function Attrs: nounwind uwtable
define internal void @_becomeUser(ptr noundef %0, ptr noundef %1) #0 {
  %3 = alloca ptr, align 8
  %4 = alloca ptr, align 8
  store ptr %0, ptr %3, align 8
  store ptr %1, ptr %4, align 8
  %5 = load ptr, ptr %4, align 8
  %6 = icmp ne ptr %5, null
  br i1 %6, label %8, label %7

7:                                                ; preds = %2
  store ptr @.str.128, ptr %4, align 8
  br label %8

8:                                                ; preds = %7, %2
  %9 = load ptr, ptr %3, align 8
  %10 = getelementptr inbounds nuw %struct._archiveHandle, ptr %9, i32 0, i32 64
  %11 = load ptr, ptr %10, align 8
  %12 = icmp ne ptr %11, null
  br i1 %12, label %13, label %21

13:                                               ; preds = %8
  %14 = load ptr, ptr %3, align 8
  %15 = getelementptr inbounds nuw %struct._archiveHandle, ptr %14, i32 0, i32 64
  %16 = load ptr, ptr %15, align 8
  %17 = load ptr, ptr %4, align 8
  %18 = call i32 @strcmp(ptr noundef %16, ptr noundef %17) #14
  %19 = icmp eq i32 %18, 0
  br i1 %19, label %20, label %21

20:                                               ; preds = %13
  br label %31

21:                                               ; preds = %13, %8
  %22 = load ptr, ptr %3, align 8
  %23 = load ptr, ptr %4, align 8
  call void @_doSetSessionAuth(ptr noundef %22, ptr noundef %23)
  %24 = load ptr, ptr %3, align 8
  %25 = getelementptr inbounds nuw %struct._archiveHandle, ptr %24, i32 0, i32 64
  %26 = load ptr, ptr %25, align 8
  call void @free(ptr noundef %26) #11
  %27 = load ptr, ptr %4, align 8
  %28 = call ptr @pg_strdup(ptr noundef %27)
  %29 = load ptr, ptr %3, align 8
  %30 = getelementptr inbounds nuw %struct._archiveHandle, ptr %29, i32 0, i32 64
  store ptr %28, ptr %30, align 8
  br label %31

31:                                               ; preds = %21, %20
  ret void
}