; Function Attrs: nounwind uwtable
define internal fastcc void @_becomeUser(ptr noundef %0, ptr noundef %1) unnamed_addr #0 {
  %.not = icmp eq ptr %1, null
  %spec.store.select = select i1 %.not, ptr @.str.128, ptr %1
  %3 = getelementptr inbounds nuw i8, ptr %0, i64 600
  %4 = load ptr, ptr %3, align 8
  %.not9 = icmp eq ptr %4, null
  br i1 %.not9, label %8, label %5

5:                                                ; preds = %2
  %6 = tail call i32 @strcmp(ptr noundef nonnull dereferenceable(1) %4, ptr noundef nonnull dereferenceable(1) %spec.store.select) #24
  %7 = icmp eq i32 %6, 0
  br i1 %7, label %39, label %8

8:                                                ; preds = %5, %2
  %9 = tail call ptr @createPQExpBuffer() #22
  tail call void @appendPQExpBufferStr(ptr noundef %9, ptr noundef nonnull @.str.188) #22
  %10 = load i8, ptr %spec.store.select, align 1
  %.not21.i = icmp eq i8 %10, 0
  br i1 %.not21.i, label %17, label %11

11:                                               ; preds = %8
  %12 = getelementptr inbounds nuw i8, ptr %0, i64 64
  %13 = load i32, ptr %12, align 8
  %14 = getelementptr inbounds nuw i8, ptr %0, i64 68
  %15 = load i8, ptr %14, align 4, !range !4, !noundef !5
  %16 = trunc nuw i8 %15 to i1
  tail call void @appendStringLiteral(ptr noundef %9, ptr noundef nonnull %spec.store.select, i32 noundef %13, i1 noundef zeroext %16) #22
  br label %18

17:                                               ; preds = %8
  tail call void @appendPQExpBufferStr(ptr noundef %9, ptr noundef nonnull @.str.29) #22
  br label %18

18:                                               ; preds = %17, %11
  tail call void @appendPQExpBufferChar(ptr noundef %9, i8 noundef signext 59) #22
  %19 = getelementptr inbounds nuw i8, ptr %0, i64 8
  %20 = load ptr, ptr %19, align 8
  %.not.i.i = icmp eq ptr %20, null
  br i1 %.not.i.i, label %RestoringToDB.exit.thread.i, label %21

21:                                               ; preds = %18
  %22 = getelementptr inbounds nuw i8, ptr %20, i64 264
  %23 = load i32, ptr %22, align 8
  %.not4.i.i = icmp eq i32 %23, 0
  br i1 %.not4.i.i, label %RestoringToDB.exit.thread.i, label %RestoringToDB.exit.i

RestoringToDB.exit.i:                             ; preds = %21
  %24 = getelementptr inbounds nuw i8, ptr %0, i64 440
  %25 = load ptr, ptr %24, align 8
  %.not26.i = icmp eq ptr %25, null
  br i1 %.not26.i, label %RestoringToDB.exit.thread.i, label %26

26:                                               ; preds = %RestoringToDB.exit.i
  %27 = load ptr, ptr %9, align 8
  %28 = tail call ptr @PQexec(ptr noundef nonnull %25, ptr noundef %27) #22
  %.not23.i = icmp eq ptr %28, null
  br i1 %.not23.i, label %31, label %29

29:                                               ; preds = %26
  %30 = tail call i32 @PQresultStatus(ptr noundef nonnull %28) #22
  %.not24.i = icmp eq i32 %30, 1
  br i1 %.not24.i, label %34, label %31

31:                                               ; preds = %29, %26
  %32 = load ptr, ptr %24, align 8
  %33 = tail call ptr @PQerrorMessage(ptr noundef %32) #22
  tail call void (i32, i32, ptr, ...) @pg_log_generic(i32 noundef 4, i32 noundef 0, ptr noundef nonnull @.str.189, ptr noundef nonnull %spec.store.select, ptr noundef %33) #22
  tail call void @exit_nicely(i32 noundef 1) #23
  unreachable

34:                                               ; preds = %29
  tail call void @PQclear(ptr noundef nonnull %28) #22
  br label %_doSetSessionAuth.exit

RestoringToDB.exit.thread.i:                      ; preds = %RestoringToDB.exit.i, %21, %18
  %35 = load ptr, ptr %9, align 8
  %36 = tail call i32 (ptr, ptr, ...) @ahprintf(ptr noundef nonnull %0, ptr noundef nonnull @.str.139, ptr noundef %35)
  br label %_doSetSessionAuth.exit

_doSetSessionAuth.exit:                           ; preds = %34, %RestoringToDB.exit.thread.i
  tail call void @destroyPQExpBuffer(ptr noundef nonnull %9) #22
  %37 = load ptr, ptr %3, align 8
  tail call void @free(ptr noundef %37) #22
  %38 = tail call ptr @pg_strdup(ptr noundef nonnull %spec.store.select) #22
  store ptr %38, ptr %3, align 8
  br label %39

39:                                               ; preds = %5, %_doSetSessionAuth.exit
  ret void
}